target datalayout = "e-m:e-p270:32:32-p271:32:32-p272:64:64-i64:64-i128:128-f80:128-n8:16:32:64-S128"
target triple = "x86_64-pc-linux-gnu"

%struct.strbuf = type { i64, i64, ptr }
%struct.fetch_pack_args = type { ptr, i32, i32, ptr, ptr, %struct.list_objects_filter_options, ptr, ptr, i32 }
%struct.list_objects_filter_options = type { %struct.strbuf, i32, i8, ptr, i64, i64, i32, i64, i64, ptr }
%struct.packet_reader = type { i32, ptr, i64, ptr, i32, i32, i32, i32, ptr, i32, i8, ptr, ptr, %struct.strbuf }

@.str.88 = private unnamed_addr constant [9 x i8] c"shallow \00", align 1
@.str.90 = private unnamed_addr constant [11 x i8] c"unshallow \00", align 1
@.str.175 = private unnamed_addr constant [38 x i8] c"git fetch-pack: expected shallow list\00", align 1
@.str.176 = private unnamed_addr constant [59 x i8] c"git fetch-pack: expected a flush packet after shallow list\00", align 1

; Function Attrs: nounwind uwtable
define internal void @consume_shallow_list(ptr noundef %0, ptr noundef %1) #0 {
  %3 = alloca ptr, align 8
  %4 = alloca ptr, align 8
  store ptr %0, ptr %3, align 8, !tbaa !21
  store ptr %1, ptr %4, align 8, !tbaa !131
  %5 = load ptr, ptr %3, align 8, !tbaa !21
  %6 = getelementptr inbounds nuw %struct.fetch_pack_args, ptr %5, i32 0, i32 8
  %7 = load i32, ptr %6, align 8
  %8 = lshr i32 %7, 11
  %9 = and i32 %8, 1
  %10 = icmp ne i32 %9, 0
  br i1 %10, label %11, label %47

11:                                               ; preds = %2
  %12 = load ptr, ptr %3, align 8, !tbaa !21
  %13 = getelementptr inbounds nuw %struct.fetch_pack_args, ptr %12, i32 0, i32 8
  %14 = load i32, ptr %13, align 8
  %15 = lshr i32 %14, 17
  %16 = and i32 %15, 1
  %17 = icmp ne i32 %16, 0
  br i1 %17, label %18, label %47

18:                                               ; preds = %11
  br label %19

19:                                               ; preds = %36, %29, %18
  %20 = load ptr, ptr %4, align 8, !tbaa !131
  %21 = call i32 @packet_reader_read(ptr noundef %20)
  %22 = icmp eq i32 %21, 1
  br i1 %22, label %23, label %39

23:                                               ; preds = %19
  %24 = load ptr, ptr %4, align 8, !tbaa !131
  %25 = getelementptr inbounds nuw %struct.packet_reader, ptr %24, i32 0, i32 8
  %26 = load ptr, ptr %25, align 8, !tbaa !133
  %27 = call i32 @starts_with(ptr noundef %26, ptr noundef @.str.88)
  %28 = icmp ne i32 %27, 0
  br i1 %28, label %29, label %30

29:                                               ; preds = %23
  br label %19, !llvm.loop !225

30:                                               ; preds = %23
  %31 = load ptr, ptr %4, align 8, !tbaa !131
  %32 = getelementptr inbounds nuw %struct.packet_reader, ptr %31, i32 0, i32 8
  %33 = load ptr, ptr %32, align 8, !tbaa !133
  %34 = call i32 @starts_with(ptr noundef %33, ptr noundef @.str.90)
  %35 = icmp ne i32 %34, 0
  br i1 %35, label %36, label %37

36:                                               ; preds = %30
  br label %19, !llvm.loop !225

37:                                               ; preds = %30
  %38 = call ptr @_(ptr noundef @.str.175)
  call void (ptr, ...) @die(ptr noundef %38) #13
  unreachable

39:                                               ; preds = %19
  %40 = load ptr, ptr %4, align 8, !tbaa !131
  %41 = getelementptr inbounds nuw %struct.packet_reader, ptr %40, i32 0, i32 6
  %42 = load i32, ptr %41, align 8, !tbaa !136
  %43 = icmp ne i32 %42, 2
  br i1 %43, label %44, label %46

44:                                               ; preds = %39
  %45 = call ptr @_(ptr noundef @.str.176)
  call void (ptr, ...) @die(ptr noundef %45) #13
  unreachable

46:                                               ; preds = %39
  br label %47

47:                                               ; preds = %46, %11, %2
  ret void
}