; Function Attrs: nounwind uwtable
define internal fastcc void @consume_shallow_list(i32 %.136.val, ptr noundef nonnull %0) unnamed_addr #0 {
  %2 = and i32 %.136.val, 133120
  %or.cond.not = icmp eq i32 %2, 133120
  br i1 %or.cond.not, label %.preheader, label %20

.preheader:                                       ; preds = %1
  %3 = tail call i32 @packet_reader_read(ptr noundef nonnull %0) #20
  %4 = icmp eq i32 %3, 1
  br i1 %4, label %.lr.ph, label %._crit_edge

.lr.ph:                                           ; preds = %.preheader
  %5 = getelementptr inbounds nuw i8, ptr %0, i64 48
  br label %6

6:                                                ; preds = %.lr.ph, %.backedge
  %7 = load ptr, ptr %5, align 8, !tbaa !80
  %8 = tail call i32 @starts_with(ptr noundef %7, ptr noundef nonnull @.str.88) #20
  %.not8 = icmp eq i32 %8, 0
  br i1 %.not8, label %11, label %.backedge

.backedge:                                        ; preds = %6, %11
  %9 = tail call i32 @packet_reader_read(ptr noundef nonnull %0) #20
  %10 = icmp eq i32 %9, 1
  br i1 %10, label %6, label %._crit_edge, !llvm.loop !185

11:                                               ; preds = %6
  %12 = load ptr, ptr %5, align 8, !tbaa !80
  %13 = tail call i32 @starts_with(ptr noundef %12, ptr noundef nonnull @.str.90) #20
  %.not9 = icmp eq i32 %13, 0
  br i1 %.not9, label %14, label %.backedge

14:                                               ; preds = %11
  %15 = tail call fastcc ptr @_(ptr noundef nonnull @.str.175)
  tail call void (ptr, ...) @die(ptr noundef %15) #21
  unreachable

._crit_edge:                                      ; preds = %.backedge, %.preheader
  %16 = getelementptr inbounds nuw i8, ptr %0, i64 40
  %17 = load i32, ptr %16, align 8, !tbaa !82
  %.not7 = icmp eq i32 %17, 2
  br i1 %.not7, label %20, label %18

18:                                               ; preds = %._crit_edge
  %19 = tail call fastcc ptr @_(ptr noundef nonnull @.str.176)
  tail call void (ptr, ...) @die(ptr noundef %19) #21
  unreachable

20:                                               ; preds = %._crit_edge, %1
  ret void
}